; Function Attrs: nounwind uwtable
define dso_local noundef zeroext i1 @pgstat_database_flush_cb(ptr noundef %0, i1 noundef zeroext %1) local_unnamed_addr #0 {
  %3 = getelementptr inbounds nuw i8, ptr %0, i64 24
  %4 = load ptr, ptr %3, align 8
  %5 = getelementptr inbounds nuw i8, ptr %0, i64 8
  %6 = load ptr, ptr %5, align 8
  %7 = tail call zeroext i1 @pgstat_lock_entry(ptr noundef %0, i1 noundef zeroext %1) #6
  br i1 %7, label %8, label %153

8:                                                ; preds = %2
  %9 = load i64, ptr %4, align 8
  %10 = getelementptr inbounds nuw i8, ptr %6, i64 24
  %11 = load i64, ptr %10, align 8
  %12 = add i64 %11, %9
  store i64 %12, ptr %10, align 8
  %13 = getelementptr inbounds nuw i8, ptr %4, i64 8
  %14 = load i64, ptr %13, align 8
  %15 = getelementptr inbounds nuw i8, ptr %6, i64 32
  %16 = load i64, ptr %15, align 8
  %17 = add i64 %16, %14
  store i64 %17, ptr %15, align 8
  %18 = getelementptr inbounds nuw i8, ptr %4, i64 16
  %19 = load i64, ptr %18, align 8
  %20 = getelementptr inbounds nuw i8, ptr %6, i64 40
  %21 = load i64, ptr %20, align 8
  %22 = add i64 %21, %19
  store i64 %22, ptr %20, align 8
  %23 = getelementptr inbounds nuw i8, ptr %4, i64 24
  %24 = load i64, ptr %23, align 8
  %25 = getelementptr inbounds nuw i8, ptr %6, i64 48
  %26 = load i64, ptr %25, align 8
  %27 = add i64 %26, %24
  store i64 %27, ptr %25, align 8
  %28 = getelementptr inbounds nuw i8, ptr %4, i64 32
  %29 = load i64, ptr %28, align 8
  %30 = getelementptr inbounds nuw i8, ptr %6, i64 56
  %31 = load i64, ptr %30, align 8
  %32 = add i64 %31, %29
  store i64 %32, ptr %30, align 8
  %33 = getelementptr inbounds nuw i8, ptr %4, i64 40
  %34 = load i64, ptr %33, align 8
  %35 = getelementptr inbounds nuw i8, ptr %6, i64 64
  %36 = load i64, ptr %35, align 8
  %37 = add i64 %36, %34
  store i64 %37, ptr %35, align 8
  %38 = getelementptr inbounds nuw i8, ptr %4, i64 48
  %39 = load i64, ptr %38, align 8
  %40 = getelementptr inbounds nuw i8, ptr %6, i64 72
  %41 = load i64, ptr %40, align 8
  %42 = add i64 %41, %39
  store i64 %42, ptr %40, align 8
  %43 = getelementptr inbounds nuw i8, ptr %4, i64 56
  %44 = load i64, ptr %43, align 8
  %45 = getelementptr inbounds nuw i8, ptr %6, i64 80
  %46 = load i64, ptr %45, align 8
  %47 = add i64 %46, %44
  store i64 %47, ptr %45, align 8
  %48 = getelementptr inbounds nuw i8, ptr %4, i64 64
  %49 = load i64, ptr %48, align 8
  %50 = getelementptr inbounds nuw i8, ptr %6, i64 88
  %51 = load i64, ptr %50, align 8
  %52 = add i64 %51, %49
  store i64 %52, ptr %50, align 8
  %53 = getelementptr inbounds nuw i8, ptr %4, i64 80
  %54 = load i64, ptr %53, align 8
  %55 = getelementptr inbounds nuw i8, ptr %6, i64 104
  %56 = load i64, ptr %55, align 8
  %57 = add i64 %56, %54
  store i64 %57, ptr %55, align 8
  %58 = getelementptr inbounds nuw i8, ptr %4, i64 88
  %59 = load i64, ptr %58, align 8
  %60 = getelementptr inbounds nuw i8, ptr %6, i64 112
  %61 = load i64, ptr %60, align 8
  %62 = add i64 %61, %59
  store i64 %62, ptr %60, align 8
  %63 = getelementptr inbounds nuw i8, ptr %4, i64 96
  %64 = load i64, ptr %63, align 8
  %65 = getelementptr inbounds nuw i8, ptr %6, i64 120
  %66 = load i64, ptr %65, align 8
  %67 = add i64 %66, %64
  store i64 %67, ptr %65, align 8
  %68 = getelementptr inbounds nuw i8, ptr %4, i64 104
  %69 = load i64, ptr %68, align 8
  %70 = getelementptr inbounds nuw i8, ptr %6, i64 128
  %71 = load i64, ptr %70, align 8
  %72 = add i64 %71, %69
  store i64 %72, ptr %70, align 8
  %73 = getelementptr inbounds nuw i8, ptr %4, i64 112
  %74 = load i64, ptr %73, align 8
  %75 = getelementptr inbounds nuw i8, ptr %6, i64 136
  %76 = load i64, ptr %75, align 8
  %77 = add i64 %76, %74
  store i64 %77, ptr %75, align 8
  %78 = getelementptr inbounds nuw i8, ptr %4, i64 120
  %79 = load i64, ptr %78, align 8
  %80 = getelementptr inbounds nuw i8, ptr %6, i64 144
  %81 = load i64, ptr %80, align 8
  %82 = add i64 %81, %79
  store i64 %82, ptr %80, align 8
  %83 = getelementptr inbounds nuw i8, ptr %4, i64 136
  %84 = load i64, ptr %83, align 8
  %85 = getelementptr inbounds nuw i8, ptr %6, i64 160
  %86 = load i64, ptr %85, align 8
  %87 = add i64 %86, %84
  store i64 %87, ptr %85, align 8
  %88 = getelementptr inbounds nuw i8, ptr %4, i64 128
  %89 = load i64, ptr %88, align 8
  %90 = getelementptr inbounds nuw i8, ptr %6, i64 152
  %91 = load i64, ptr %90, align 8
  %92 = add i64 %91, %89
  store i64 %92, ptr %90, align 8
  %93 = getelementptr inbounds nuw i8, ptr %4, i64 144
  %94 = load i64, ptr %93, align 8
  %95 = getelementptr inbounds nuw i8, ptr %6, i64 168
  %96 = load i64, ptr %95, align 8
  %97 = add i64 %96, %94
  store i64 %97, ptr %95, align 8
  %98 = getelementptr inbounds nuw i8, ptr %4, i64 168
  %99 = load i64, ptr %98, align 8
  %100 = getelementptr inbounds nuw i8, ptr %6, i64 192
  %101 = load i64, ptr %100, align 8
  %102 = add i64 %101, %99
  store i64 %102, ptr %100, align 8
  %103 = getelementptr inbounds nuw i8, ptr %4, i64 176
  %104 = load i64, ptr %103, align 8
  %105 = getelementptr inbounds nuw i8, ptr %6, i64 200
  %106 = load i64, ptr %105, align 8
  %107 = add i64 %106, %104
  store i64 %107, ptr %105, align 8
  %108 = getelementptr inbounds nuw i8, ptr %4, i64 184
  %109 = load i64, ptr %108, align 8
  %110 = getelementptr inbounds nuw i8, ptr %6, i64 208
  %111 = load i64, ptr %110, align 8
  %112 = add i64 %111, %109
  store i64 %112, ptr %110, align 8
  %113 = getelementptr inbounds nuw i8, ptr %4, i64 192
  %114 = load i64, ptr %113, align 8
  %115 = getelementptr inbounds nuw i8, ptr %6, i64 216
  %116 = load i64, ptr %115, align 8
  %117 = add i64 %116, %114
  store i64 %117, ptr %115, align 8
  %118 = getelementptr inbounds nuw i8, ptr %4, i64 200
  %119 = load i64, ptr %118, align 8
  %120 = getelementptr inbounds nuw i8, ptr %6, i64 224
  %121 = load i64, ptr %120, align 8
  %122 = add i64 %121, %119
  store i64 %122, ptr %120, align 8
  %123 = getelementptr inbounds nuw i8, ptr %4, i64 208
  %124 = load i64, ptr %123, align 8
  %125 = getelementptr inbounds nuw i8, ptr %6, i64 232
  %126 = load i64, ptr %125, align 8
  %127 = add i64 %126, %124
  store i64 %127, ptr %125, align 8
  %128 = getelementptr inbounds nuw i8, ptr %4, i64 216
  %129 = load i64, ptr %128, align 8
  %130 = getelementptr inbounds nuw i8, ptr %6, i64 240
  %131 = load i64, ptr %130, align 8
  %132 = add i64 %131, %129
  store i64 %132, ptr %130, align 8
  %133 = getelementptr inbounds nuw i8, ptr %4, i64 224
  %134 = load i64, ptr %133, align 8
  %135 = getelementptr inbounds nuw i8, ptr %6, i64 248
  %136 = load i64, ptr %135, align 8
  %137 = add i64 %136, %134
  store i64 %137, ptr %135, align 8
  %138 = getelementptr inbounds nuw i8, ptr %4, i64 232
  %139 = load i64, ptr %138, align 8
  %140 = getelementptr inbounds nuw i8, ptr %6, i64 256
  %141 = load i64, ptr %140, align 8
  %142 = add i64 %141, %139
  store i64 %142, ptr %140, align 8
  %143 = getelementptr inbounds nuw i8, ptr %4, i64 240
  %144 = load i64, ptr %143, align 8
  %145 = getelementptr inbounds nuw i8, ptr %6, i64 264
  %146 = load i64, ptr %145, align 8
  %147 = add i64 %146, %144
  store i64 %147, ptr %145, align 8
  %148 = getelementptr inbounds nuw i8, ptr %4, i64 248
  %149 = load i64, ptr %148, align 8
  %150 = getelementptr inbounds nuw i8, ptr %6, i64 272
  %151 = load i64, ptr %150, align 8
  %152 = add i64 %151, %149
  store i64 %152, ptr %150, align 8
  tail call void @pgstat_unlock_entry(ptr noundef nonnull %0) #6
  tail call void @llvm.memset.p0.i64(ptr noundef nonnull align 8 dereferenceable(264) %4, i8 0, i64 264, i1 false)
  br label %153

153:                                              ; preds = %2, %8
  ret i1 %7
}